; Function Attrs: nounwind uwtable
define internal ptr @getargs_tuple(ptr readnone captures(none) %0, ptr noundef %1) #0 {
  %3 = alloca i32, align 4
  %4 = alloca i32, align 4
  %5 = alloca i32, align 4
  call void @llvm.lifetime.start.p0(i64 4, ptr nonnull %3) #7
  call void @llvm.lifetime.start.p0(i64 4, ptr nonnull %4) #7
  call void @llvm.lifetime.start.p0(i64 4, ptr nonnull %5) #7
  %6 = call i32 (ptr, ptr, ...) @PyArg_ParseTuple(ptr noundef %1, ptr noundef nonnull @.str.94, ptr noundef nonnull %3, ptr noundef nonnull %4, ptr noundef nonnull %5) #7
  %.not = icmp eq i32 %6, 0
  br i1 %.not, label %12, label %7

7:                                                ; preds = %2
  %8 = load i32, ptr %3, align 4, !tbaa !6
  %9 = load i32, ptr %4, align 4, !tbaa !6
  %10 = load i32, ptr %5, align 4, !tbaa !6
  %11 = call ptr (ptr, ...) @Py_BuildValue(ptr noundef nonnull @.str.78, i32 noundef %8, i32 noundef %9, i32 noundef %10) #7
  br label %12

12:                                               ; preds = %2, %7
  %.0 = phi ptr [ %11, %7 ], [ null, %2 ]
  call void @llvm.lifetime.end.p0(i64 4, ptr nonnull %5) #7
  call void @llvm.lifetime.end.p0(i64 4, ptr nonnull %4) #7
  call void @llvm.lifetime.end.p0(i64 4, ptr nonnull %3) #7
  ret ptr %.0
}